target datalayout = "e-m:e-p270:32:32-p271:32:32-p272:64:64-i64:64-i128:128-f80:128-n8:16:32:64-S128"
target triple = "x86_64-pc-linux-gnu"

%struct.string_list_item = type { ptr, ptr }

; Function Attrs: nounwind uwtable
define internal i32 @prune_cmp(ptr noundef %0, ptr noundef %1) #0 {
  %3 = alloca i32, align 4
  %4 = alloca ptr, align 8
  %5 = alloca ptr, align 8
  %6 = alloca ptr, align 8
  %7 = alloca ptr, align 8
  %8 = alloca i32, align 4
  %9 = alloca i32, align 4
  store ptr %0, ptr %4, align 8, !tbaa !15
  store ptr %1, ptr %5, align 8, !tbaa !15
  call void @llvm.lifetime.start.p0(i64 8, ptr %6) #11
  %10 = load ptr, ptr %4, align 8, !tbaa !15
  store ptr %10, ptr %6, align 8, !tbaa !115
  call void @llvm.lifetime.start.p0(i64 8, ptr %7) #11
  %11 = load ptr, ptr %5, align 8, !tbaa !15
  store ptr %11, ptr %7, align 8, !tbaa !115
  call void @llvm.lifetime.start.p0(i64 4, ptr %8) #11
  %12 = load ptr, ptr %6, align 8, !tbaa !115
  %13 = getelementptr inbounds nuw %struct.string_list_item, ptr %12, i32 0, i32 0
  %14 = load ptr, ptr %13, align 8, !tbaa !113
  %15 = load ptr, ptr %7, align 8, !tbaa !115
  %16 = getelementptr inbounds nuw %struct.string_list_item, ptr %15, i32 0, i32 0
  %17 = load ptr, ptr %16, align 8, !tbaa !113
  %18 = call i32 @git_fspathcmp(ptr noundef %14, ptr noundef %17)
  store i32 %18, ptr %8, align 4, !tbaa !4
  %19 = icmp ne i32 %18, 0
  br i1 %19, label %20, label %22

20:                                               ; preds = %2
  %21 = load i32, ptr %8, align 4, !tbaa !4
  store i32 %21, ptr %3, align 4
  store i32 1, ptr %9, align 4
  br label %42

22:                                               ; preds = %2
  %23 = load ptr, ptr %6, align 8, !tbaa !115
  %24 = getelementptr inbounds nuw %struct.string_list_item, ptr %23, i32 0, i32 1
  %25 = load ptr, ptr %24, align 8, !tbaa !104
  %26 = icmp ne ptr %25, null
  br i1 %26, label %28, label %27

27:                                               ; preds = %22
  store i32 -1, ptr %3, align 4
  store i32 1, ptr %9, align 4
  br label %42

28:                                               ; preds = %22
  %29 = load ptr, ptr %7, align 8, !tbaa !115
  %30 = getelementptr inbounds nuw %struct.string_list_item, ptr %29, i32 0, i32 1
  %31 = load ptr, ptr %30, align 8, !tbaa !104
  %32 = icmp ne ptr %31, null
  br i1 %32, label %34, label %33

33:                                               ; preds = %28
  store i32 1, ptr %3, align 4
  store i32 1, ptr %9, align 4
  br label %42

34:                                               ; preds = %28
  %35 = load ptr, ptr %6, align 8, !tbaa !115
  %36 = getelementptr inbounds nuw %struct.string_list_item, ptr %35, i32 0, i32 1
  %37 = load ptr, ptr %36, align 8, !tbaa !104
  %38 = load ptr, ptr %7, align 8, !tbaa !115
  %39 = getelementptr inbounds nuw %struct.string_list_item, ptr %38, i32 0, i32 1
  %40 = load ptr, ptr %39, align 8, !tbaa !104
  %41 = call i32 @strcmp(ptr noundef %37, ptr noundef %40) #13
  store i32 %41, ptr %3, align 4
  store i32 1, ptr %9, align 4
  br label %42

42:                                               ; preds = %34, %33, %27, %20
  call void @llvm.lifetime.end.p0(i64 4, ptr %8) #11
  call void @llvm.lifetime.end.p0(i64 8, ptr %7) #11
  call void @llvm.lifetime.end.p0(i64 8, ptr %6) #11
  %43 = load i32, ptr %3, align 4
  ret i32 %43
}