; Function Attrs: nounwind uwtable
define internal i32 @prune_cmp(ptr noundef readonly captures(none) %0, ptr noundef readonly captures(none) %1) #0 {
  %3 = load ptr, ptr %0, align 8, !tbaa !78
  %4 = load ptr, ptr %1, align 8, !tbaa !78
  %5 = tail call i32 @git_fspathcmp(ptr noundef %3, ptr noundef %4) #18
  %.not = icmp eq i32 %5, 0
  br i1 %.not, label %6, label %14

6:                                                ; preds = %2
  %7 = getelementptr inbounds nuw i8, ptr %0, i64 8
  %8 = load ptr, ptr %7, align 8, !tbaa !71
  %.not12 = icmp eq ptr %8, null
  br i1 %.not12, label %14, label %9

9:                                                ; preds = %6
  %10 = getelementptr inbounds nuw i8, ptr %1, i64 8
  %11 = load ptr, ptr %10, align 8, !tbaa !71
  %.not13 = icmp eq ptr %11, null
  br i1 %.not13, label %14, label %12

12:                                               ; preds = %9
  %13 = tail call i32 @strcmp(ptr noundef nonnull dereferenceable(1) %8, ptr noundef nonnull dereferenceable(1) %11) #20
  br label %14

14:                                               ; preds = %9, %6, %2, %12
  %.0 = phi i32 [ %13, %12 ], [ %5, %2 ], [ -1, %6 ], [ 1, %9 ]
  ret i32 %.0
}